# SymbolsHelper-Confirmed: 5.15.1 amd64
libQt5SerialBus.so.5 libqt5serialbus5 #MINVER#
* Build-Depends-Package: libqt5serialbus5-dev
 Qt_5.0@Qt_5.0 5.10.1
 Qt_5.10@Qt_5.10 5.10.1
 Qt_5.11@Qt_5.11 5.11.2
 Qt_5.12@Qt_5.12 5.12.0
 Qt_5.13@Qt_5.13 5.14.2
 Qt_5.14@Qt_5.14 5.14.2
 Qt_5.15@Qt_5.15 5.15.1
 Qt_5.1@Qt_5.1 5.10.1
 Qt_5.2@Qt_5.2 5.10.1
 Qt_5.3@Qt_5.3 5.10.1
 Qt_5.4@Qt_5.4 5.10.1
 Qt_5.5@Qt_5.5 5.10.1
 Qt_5.6@Qt_5.6 5.10.1
 Qt_5.7@Qt_5.7 5.10.1
 Qt_5.8@Qt_5.8 5.10.1
 Qt_5.9@Qt_5.9 5.10.1
 Qt_5@Qt_5 5.10.1
 (symver)Qt_5_PRIVATE_API 0
 _ZN12QModbusReply11qt_metacallEN11QMetaObject4CallEiPPv@Qt_5 5.10.1
 _ZN12QModbusReply11qt_metacastEPKc@Qt_5 5.10.1
 _ZN12QModbusReply11setFinishedEb@Qt_5 5.10.1
 _ZN12QModbusReply12setRawResultERK15QModbusResponse@Qt_5 5.10.1
 _ZN12QModbusReply13errorOccurredEN13QModbusDevice5ErrorE@Qt_5 5.10.1
 _ZN12QModbusReply16staticMetaObjectE@Qt_5 5.10.1
 _ZN12QModbusReply8finishedEv@Qt_5 5.10.1
 _ZN12QModbusReply8setErrorEN13QModbusDevice5ErrorERK7QString@Qt_5 5.10.1
 _ZN12QModbusReply9setResultERK15QModbusDataUnit@Qt_5 5.10.1
 _ZN12QModbusReplyC1ENS_9ReplyTypeEiP7QObject@Qt_5 5.10.1
 _ZN12QModbusReplyC2ENS_9ReplyTypeEiP7QObject@Qt_5 5.10.1
 _ZN13QCanBusDevice10clearErrorEv@Qt_5 5.14.2
 _ZN13QCanBusDevice11qt_metacallEN11QMetaObject4CallEiPPv@Qt_5 5.10.1
 _ZN13QCanBusDevice11qt_metacastEPKc@Qt_5 5.10.1
 _ZN13QCanBusDevice12stateChangedENS_17CanBusDeviceStateE@Qt_5 5.10.1
 _ZN13QCanBusDevice13connectDeviceEv@Qt_5 5.10.1
 _ZN13QCanBusDevice13errorOccurredENS_11CanBusErrorE@Qt_5 5.10.1
 _ZN13QCanBusDevice13framesWrittenEx@Qt_5 5.10.1
 _ZN13QCanBusDevice13readAllFramesEv@Qt_5 5.12.2
 _ZN13QCanBusDevice14framesReceivedEv@Qt_5 5.10.1
 _ZN13QCanBusDevice15resetControllerEv@Qt_5 5.14.2
 _ZN13QCanBusDevice16createDeviceInfoERK7QStringS2_S2_ibb@Qt_5 5.11.2
 _ZN13QCanBusDevice16createDeviceInfoERK7QStringbb@Qt_5 5.10.1
 _ZN13QCanBusDevice16disconnectDeviceEv@Qt_5 5.10.1
 _ZN13QCanBusDevice16staticMetaObjectE@Qt_5 5.10.1
 _ZN13QCanBusDevice20dequeueOutgoingFrameEv@Qt_5 5.10.1
 _ZN13QCanBusDevice20enqueueOutgoingFrameERK12QCanBusFrame@Qt_5 5.10.1
 _ZN13QCanBusDevice20waitForFramesWrittenEi@Qt_5 5.10.1
 _ZN13QCanBusDevice21enqueueReceivedFramesERK7QVectorI12QCanBusFrameE@Qt_5 5.10.1
 _ZN13QCanBusDevice21setCanBusStatusGetterESt8functionIFNS_12CanBusStatusEvEE@Qt_5 5.14.2
 _ZN13QCanBusDevice21waitForFramesReceivedEi@Qt_5 5.10.1
 _ZN13QCanBusDevice25setConfigurationParameterEiRK8QVariant@Qt_5 5.10.1
 _ZN13QCanBusDevice26setResetControllerFunctionESt8functionIFvvEE@Qt_5 5.14.2
 _ZN13QCanBusDevice5clearE6QFlagsINS_9DirectionEE@Qt_5 5.12.2
 _ZN13QCanBusDevice8setErrorERK7QStringNS_11CanBusErrorE@Qt_5 5.10.1
 _ZN13QCanBusDevice8setStateENS_17CanBusDeviceStateE@Qt_5 5.10.1
 _ZN13QCanBusDevice9readFrameEv@Qt_5 5.10.1
 _ZN13QCanBusDeviceC1EP7QObject@Qt_5 5.10.1
 _ZN13QCanBusDeviceC2EP7QObject@Qt_5 5.10.1
 _ZN13QModbusClient10setTimeoutEi@Qt_5 5.10.1
 _ZN13QModbusClient11qt_metacallEN11QMetaObject4CallEiPPv@Qt_5 5.10.1
 _ZN13QModbusClient11qt_metacastEPKc@Qt_5 5.10.1
 _ZN13QModbusClient14sendRawRequestERK14QModbusRequesti@Qt_5 5.10.1
 _ZN13QModbusClient14timeoutChangedEi@Qt_5 5.10.1
 _ZN13QModbusClient15processResponseERK15QModbusResponseP15QModbusDataUnit@Qt_5 5.10.1
 _ZN13QModbusClient15sendReadRequestERK15QModbusDataUniti@Qt_5 5.10.1
 _ZN13QModbusClient16sendWriteRequestERK15QModbusDataUniti@Qt_5 5.10.1
 _ZN13QModbusClient16staticMetaObjectE@Qt_5 5.10.1
 _ZN13QModbusClient18setNumberOfRetriesEi@Qt_5 5.10.1
 _ZN13QModbusClient20sendReadWriteRequestERK15QModbusDataUnitS2_i@Qt_5 5.10.1
 _ZN13QModbusClient22processPrivateResponseERK15QModbusResponseP15QModbusDataUnit@Qt_5 5.10.1
 _ZN13QModbusClientC1EP7QObject@Qt_5 5.10.1
 _ZN13QModbusClientC2EP7QObject@Qt_5 5.10.1
 _ZN13QModbusClientD0Ev@Qt_5 5.10.1
 _ZN13QModbusClientD1Ev@Qt_5 5.10.1
 _ZN13QModbusClientD2Ev@Qt_5 5.10.1
 _ZN13QModbusDevice11qt_metacallEN11QMetaObject4CallEiPPv@Qt_5 5.10.1
 _ZN13QModbusDevice11qt_metacastEPKc@Qt_5 5.10.1
 _ZN13QModbusDevice12stateChangedENS_5StateE@Qt_5 5.10.1
 _ZN13QModbusDevice13connectDeviceEv@Qt_5 5.10.1
 _ZN13QModbusDevice13errorOccurredENS_5ErrorE@Qt_5 5.10.1
 _ZN13QModbusDevice16disconnectDeviceEv@Qt_5 5.10.1
 _ZN13QModbusDevice16staticMetaObjectE@Qt_5 5.10.1
 _ZN13QModbusDevice22setConnectionParameterEiRK8QVariant@Qt_5 5.10.1
 _ZN13QModbusDevice8setErrorERK7QStringNS_5ErrorE@Qt_5 5.10.1
 _ZN13QModbusDevice8setStateENS_5StateE@Qt_5 5.10.1
 _ZN13QModbusDeviceC1EP7QObject@Qt_5 5.10.1
 _ZN13QModbusDeviceC1ER20QModbusDevicePrivateP7QObject@Qt_5 5.10.1
 _ZN13QModbusDeviceC2EP7QObject@Qt_5 5.10.1
 _ZN13QModbusDeviceC2ER20QModbusDevicePrivateP7QObject@Qt_5 5.10.1
 _ZN13QModbusDeviceD0Ev@Qt_5 5.10.1
 _ZN13QModbusDeviceD1Ev@Qt_5 5.10.1
 _ZN13QModbusDeviceD2Ev@Qt_5 5.10.1
 _ZN13QModbusServer11dataWrittenEN15QModbusDataUnit12RegisterTypeEii@Qt_5 5.10.1
 _ZN13QModbusServer11qt_metacallEN11QMetaObject4CallEiPPv@Qt_5 5.10.1
 _ZN13QModbusServer11qt_metacastEPKc@Qt_5 5.10.1
 _ZN13QModbusServer14processRequestERK10QModbusPdu@Qt_5 5.10.1
 _ZN13QModbusServer16setServerAddressEi@Qt_5 5.10.1
 _ZN13QModbusServer16staticMetaObjectE@Qt_5 5.10.1
 _ZN13QModbusServer21processPrivateRequestERK10QModbusPdu@Qt_5 5.10.1
 _ZN13QModbusServer6setMapERK4QMapIN15QModbusDataUnit12RegisterTypeES1_E@Qt_5 5.10.1
 _ZN13QModbusServer7setDataEN15QModbusDataUnit12RegisterTypeEtt@Qt_5 5.10.1
 _ZN13QModbusServer7setDataERK15QModbusDataUnit@Qt_5 5.10.1
 _ZN13QModbusServer8setValueEiRK8QVariant@Qt_5 5.10.1
 _ZN13QModbusServer9writeDataERK15QModbusDataUnit@Qt_5 5.10.1
 _ZN13QModbusServerC1EP7QObject@Qt_5 5.10.1
 _ZN13QModbusServerC1ER20QModbusServerPrivateP7QObject@Qt_5 5.10.1
 _ZN13QModbusServerC2EP7QObject@Qt_5 5.10.1
 _ZN13QModbusServerC2ER20QModbusServerPrivateP7QObject@Qt_5 5.10.1
 _ZN13QModbusServerD0Ev@Qt_5 5.10.1
 _ZN13QModbusServerD1Ev@Qt_5 5.10.1
 _ZN13QModbusServerD2Ev@Qt_5 5.10.1
 _ZN14QModbusRequest15minimumDataSizeERKS_@Qt_5 5.10.1
 _ZN14QModbusRequest17calculateDataSizeERKS_@Qt_5 5.10.1
 _ZN14QModbusRequest26registerDataSizeCalculatorEN10QModbusPdu12FunctionCodeEPFiRKS_E@Qt_5 5.10.1
 _ZN15QModbusResponse15minimumDataSizeERKS_@Qt_5 5.10.1
 _ZN15QModbusResponse17calculateDataSizeERKS_@Qt_5 5.10.1
 _ZN15QModbusResponse26registerDataSizeCalculatorEN10QModbusPdu12FunctionCodeEPFiRKS_E@Qt_5 5.10.1
 _ZN16QCanBusFactoryV2D0Ev@Qt_5 5.10.1
 _ZN16QCanBusFactoryV2D1Ev@Qt_5 5.10.1
 _ZN16QCanBusFactoryV2D2Ev@Qt_5 5.10.1
 _ZN16QModbusTcpClient11qt_metacallEN11QMetaObject4CallEiPPv@Qt_5 5.10.1
 _ZN16QModbusTcpClient11qt_metacastEPKc@Qt_5 5.10.1
 _ZN16QModbusTcpClient16staticMetaObjectE@Qt_5 5.10.1
 _ZN16QModbusTcpClient4openEv@Qt_5 5.10.1
 _ZN16QModbusTcpClient5closeEv@Qt_5 5.10.1
 _ZN16QModbusTcpClientC1EP7QObject@Qt_5 5.10.1
 _ZN16QModbusTcpClientC1ER23QModbusTcpClientPrivateP7QObject@Qt_5 5.10.1
 _ZN16QModbusTcpClientC2EP7QObject@Qt_5 5.10.1
 _ZN16QModbusTcpClientC2ER23QModbusTcpClientPrivateP7QObject@Qt_5 5.10.1
 _ZN16QModbusTcpClientD0Ev@Qt_5 5.10.1
 _ZN16QModbusTcpClientD1Ev@Qt_5 5.10.1
 _ZN16QModbusTcpClientD2Ev@Qt_5 5.10.1
 _ZN16QModbusTcpServer11qt_metacallEN11QMetaObject4CallEiPPv@Qt_5 5.10.1
 _ZN16QModbusTcpServer11qt_metacastEPKc@Qt_5 5.10.1
 _ZN16QModbusTcpServer14processRequestERK10QModbusPdu@Qt_5 5.10.1
 _ZN16QModbusTcpServer16staticMetaObjectE@Qt_5 5.10.1
 _ZN16QModbusTcpServer24modbusClientDisconnectedEP10QTcpSocket@Qt_5 5.14.2
 _ZN16QModbusTcpServer25installConnectionObserverEP28QModbusTcpConnectionObserver@Qt_5 5.14.2
 _ZN16QModbusTcpServer4openEv@Qt_5 5.10.1
 _ZN16QModbusTcpServer5closeEv@Qt_5 5.10.1
 _ZN16QModbusTcpServerC1EP7QObject@Qt_5 5.10.1
 _ZN16QModbusTcpServerC1ER23QModbusTcpServerPrivateP7QObject@Qt_5 5.10.1
 _ZN16QModbusTcpServerC2EP7QObject@Qt_5 5.10.1
 _ZN16QModbusTcpServerC2ER23QModbusTcpServerPrivateP7QObject@Qt_5 5.10.1
 _ZN16QModbusTcpServerD0Ev@Qt_5 5.10.1
 _ZN16QModbusTcpServerD1Ev@Qt_5 5.10.1
 _ZN16QModbusTcpServerD2Ev@Qt_5 5.10.1
 _ZN17QCanBusDeviceInfoC1ER24QCanBusDeviceInfoPrivate@Qt_5 5.10.1
 _ZN17QCanBusDeviceInfoC1ERKS_@Qt_5 5.10.1
 _ZN17QCanBusDeviceInfoC2ER24QCanBusDeviceInfoPrivate@Qt_5 5.10.1
 _ZN17QCanBusDeviceInfoC2ERKS_@Qt_5 5.10.1
 _ZN17QCanBusDeviceInfoD1Ev@Qt_5 5.10.1
 _ZN17QCanBusDeviceInfoD2Ev@Qt_5 5.10.1
 _ZN17QCanBusDeviceInfoaSERKS_@Qt_5 5.10.1
 _ZN21QModbusRtuSerialSlave11qt_metacallEN11QMetaObject4CallEiPPv@Qt_5 5.10.1
 _ZN21QModbusRtuSerialSlave11qt_metacastEPKc@Qt_5 5.10.1
 _ZN21QModbusRtuSerialSlave14processRequestERK10QModbusPdu@Qt_5 5.10.1
 _ZN21QModbusRtuSerialSlave16staticMetaObjectE@Qt_5 5.10.1
 _ZN21QModbusRtuSerialSlave4openEv@Qt_5 5.10.1
 _ZN21QModbusRtuSerialSlave5closeEv@Qt_5 5.10.1
 _ZN21QModbusRtuSerialSlaveC1EP7QObject@Qt_5 5.10.1
 _ZN21QModbusRtuSerialSlaveC1ER28QModbusRtuSerialSlavePrivateP7QObject@Qt_5 5.10.1
 _ZN21QModbusRtuSerialSlaveC2EP7QObject@Qt_5 5.10.1
 _ZN21QModbusRtuSerialSlaveC2ER28QModbusRtuSerialSlavePrivateP7QObject@Qt_5 5.10.1
 _ZN21QModbusRtuSerialSlaveD0Ev@Qt_5 5.10.1
 _ZN21QModbusRtuSerialSlaveD1Ev@Qt_5 5.10.1
 _ZN21QModbusRtuSerialSlaveD2Ev@Qt_5 5.10.1
 _ZN22QModbusRtuSerialMaster11qt_metacallEN11QMetaObject4CallEiPPv@Qt_5 5.10.1
 _ZN22QModbusRtuSerialMaster11qt_metacastEPKc@Qt_5 5.10.1
 _ZN22QModbusRtuSerialMaster16staticMetaObjectE@Qt_5 5.10.1
 _ZN22QModbusRtuSerialMaster18setInterFrameDelayEi@Qt_5 5.10.1
 _ZN22QModbusRtuSerialMaster18setTurnaroundDelayEi@Qt_5 5.14.2
 _ZN22QModbusRtuSerialMaster4openEv@Qt_5 5.10.1
 _ZN22QModbusRtuSerialMaster5closeEv@Qt_5 5.10.1
 _ZN22QModbusRtuSerialMasterC1EP7QObject@Qt_5 5.10.1
 _ZN22QModbusRtuSerialMasterC1ER29QModbusRtuSerialMasterPrivateP7QObject@Qt_5 5.10.1
 _ZN22QModbusRtuSerialMasterC2EP7QObject@Qt_5 5.10.1
 _ZN22QModbusRtuSerialMasterC2ER29QModbusRtuSerialMasterPrivateP7QObject@Qt_5 5.10.1
 _ZN22QModbusRtuSerialMasterD0Ev@Qt_5 5.10.1
 _ZN22QModbusRtuSerialMasterD1Ev@Qt_5 5.10.1
 _ZN22QModbusRtuSerialMasterD2Ev@Qt_5 5.10.1
 _ZN27QModbusDeviceIdentification13fromByteArrayERK10QByteArray@Qt_5 5.10.1
 _ZN28QModbusTcpConnectionObserverD0Ev@Qt_5 5.14.2
 _ZN28QModbusTcpConnectionObserverD1Ev@Qt_5 5.14.2
 _ZN28QModbusTcpConnectionObserverD2Ev@Qt_5 5.14.2
 _ZN7QCanBus11qt_metacallEN11QMetaObject4CallEiPPv@Qt_5 5.10.1
 _ZN7QCanBus11qt_metacastEPKc@Qt_5 5.10.1
 _ZN7QCanBus16staticMetaObjectE@Qt_5 5.10.1
 _ZN7QCanBus8instanceEv@Qt_5 5.10.1
 _ZN7QCanBusC1EP7QObject@Qt_5 5.10.1
 _ZN7QCanBusC2EP7QObject@Qt_5 5.10.1
 _ZNK12QCanBusFrame8toStringEv@Qt_5 5.10.1
 _ZNK12QModbusReply10isFinishedEv@Qt_5 5.10.1
 _ZNK12QModbusReply10metaObjectEv@Qt_5 5.10.1
 _ZNK12QModbusReply11errorStringEv@Qt_5 5.10.1
 _ZNK12QModbusReply13serverAddressEv@Qt_5 5.10.1
 _ZNK12QModbusReply4typeEv@Qt_5 5.10.1
 _ZNK12QModbusReply5errorEv@Qt_5 5.10.1
 _ZNK12QModbusReply6resultEv@Qt_5 5.10.1
 _ZNK12QModbusReply9rawResultEv@Qt_5 5.10.1
 _ZNK13QCanBusDevice10metaObjectEv@Qt_5 5.10.1
 _ZNK13QCanBusDevice11errorStringEv@Qt_5 5.10.1
 _ZNK13QCanBusDevice12hasBusStatusEv@Qt_5 5.14.2
 _ZNK13QCanBusDevice13framesToWriteEv@Qt_5 5.10.1
 _ZNK13QCanBusDevice15framesAvailableEv@Qt_5 5.10.1
 _ZNK13QCanBusDevice17configurationKeysEv@Qt_5 5.10.1
 _ZNK13QCanBusDevice17hasOutgoingFramesEv@Qt_5 5.10.1
 _ZNK13QCanBusDevice22configurationParameterEi@Qt_5 5.10.1
 _ZNK13QCanBusDevice5errorEv@Qt_5 5.10.1
 _ZNK13QCanBusDevice5stateEv@Qt_5 5.10.1
 _ZNK13QCanBusDevice9busStatusEv@Qt_5 5.14.2
 _ZNK13QModbusClient10metaObjectEv@Qt_5 5.10.1
 _ZNK13QModbusClient15numberOfRetriesEv@Qt_5 5.10.1
 _ZNK13QModbusClient7timeoutEv@Qt_5 5.10.1
 _ZNK13QModbusDevice10metaObjectEv@Qt_5 5.10.1
 _ZNK13QModbusDevice11errorStringEv@Qt_5 5.10.1
 _ZNK13QModbusDevice19connectionParameterEi@Qt_5 5.10.1
 _ZNK13QModbusDevice5errorEv@Qt_5 5.10.1
 _ZNK13QModbusDevice5stateEv@Qt_5 5.10.1
 _ZNK13QModbusDevice6deviceEv@Qt_5 5.14.2
 _ZNK13QModbusServer10metaObjectEv@Qt_5 5.10.1
 _ZNK13QModbusServer13serverAddressEv@Qt_5 5.10.1
 _ZNK13QModbusServer4dataEN15QModbusDataUnit12RegisterTypeEtPt@Qt_5 5.10.1
 _ZNK13QModbusServer4dataEP15QModbusDataUnit@Qt_5 5.10.1
 _ZNK13QModbusServer5valueEi@Qt_5 5.10.1
 _ZNK13QModbusServer8readDataEP15QModbusDataUnit@Qt_5 5.10.1
 _ZNK16QModbusTcpClient10metaObjectEv@Qt_5 5.10.1
 _ZNK16QModbusTcpServer10metaObjectEv@Qt_5 5.10.1
 _ZNK17QCanBusDeviceInfo11descriptionEv@Qt_5 5.11.2
 _ZNK17QCanBusDeviceInfo12serialNumberEv@Qt_5 5.11.2
 _ZNK17QCanBusDeviceInfo19hasFlexibleDataRateEv@Qt_5 5.10.1
 _ZNK17QCanBusDeviceInfo4nameEv@Qt_5 5.10.1
 _ZNK17QCanBusDeviceInfo7channelEv@Qt_5 5.11.2
 _ZNK17QCanBusDeviceInfo9isVirtualEv@Qt_5 5.10.1
 _ZNK21QModbusRtuSerialSlave10metaObjectEv@Qt_5 5.10.1
 _ZNK21QModbusRtuSerialSlave18processesBroadcastEv@Qt_5 5.10.1
 _ZNK22QModbusRtuSerialMaster10metaObjectEv@Qt_5 5.10.1
 _ZNK22QModbusRtuSerialMaster15interFrameDelayEv@Qt_5 5.10.1
 _ZNK22QModbusRtuSerialMaster15turnaroundDelayEv@Qt_5 5.14.2
 _ZNK7QCanBus10metaObjectEv@Qt_5 5.10.1
 _ZNK7QCanBus12createDeviceERK7QStringS2_PS0_@Qt_5 5.10.1
 _ZNK7QCanBus16availableDevicesERK7QStringPS0_@Qt_5 5.10.1
 _ZNK7QCanBus7pluginsEv@Qt_5 5.10.1
 _ZTI12QModbusReply@Qt_5 5.10.1
 _ZTI13QCanBusDevice@Qt_5 5.10.1
 _ZTI13QModbusClient@Qt_5 5.10.1
 _ZTI13QModbusDevice@Qt_5 5.10.1
 _ZTI13QModbusServer@Qt_5 5.10.1
 _ZTI14QCanBusFactory@Qt_5 5.10.1
 _ZTI16QCanBusFactoryV2@Qt_5 5.10.1
 _ZTI16QModbusTcpClient@Qt_5 5.10.1
 _ZTI16QModbusTcpServer@Qt_5 5.10.1
 _ZTI21QModbusRtuSerialSlave@Qt_5 5.10.1
 _ZTI22QModbusRtuSerialMaster@Qt_5 5.10.1
 _ZTI28QModbusTcpConnectionObserver@Qt_5 5.14.2
 _ZTI7QCanBus@Qt_5 5.10.1
 _ZTS12QModbusReply@Qt_5 5.10.1
 _ZTS13QCanBusDevice@Qt_5 5.10.1
 _ZTS13QModbusClient@Qt_5 5.10.1
 _ZTS13QModbusDevice@Qt_5 5.10.1
 _ZTS13QModbusServer@Qt_5 5.10.1
 _ZTS14QCanBusFactory@Qt_5 5.10.1
 _ZTS16QCanBusFactoryV2@Qt_5 5.10.1
 _ZTS16QModbusTcpClient@Qt_5 5.10.1
 _ZTS16QModbusTcpServer@Qt_5 5.10.1
 _ZTS21QModbusRtuSerialSlave@Qt_5 5.10.1
 _ZTS22QModbusRtuSerialMaster@Qt_5 5.10.1
 _ZTS28QModbusTcpConnectionObserver@Qt_5 5.14.2
 _ZTS7QCanBus@Qt_5 5.10.1
 _ZTV12QModbusReply@Qt_5 5.10.1
 _ZTV13QCanBusDevice@Qt_5 5.10.1
 _ZTV13QModbusClient@Qt_5 5.10.1
 _ZTV13QModbusDevice@Qt_5 5.10.1
 _ZTV13QModbusServer@Qt_5 5.10.1
 _ZTV16QCanBusFactoryV2@Qt_5 5.10.1
 _ZTV16QModbusTcpClient@Qt_5 5.10.1
 _ZTV16QModbusTcpServer@Qt_5 5.10.1
 _ZTV21QModbusRtuSerialSlave@Qt_5 5.10.1
 _ZTV22QModbusRtuSerialMaster@Qt_5 5.10.1
 _ZTV28QModbusTcpConnectionObserver@Qt_5 5.14.2
 _ZTV7QCanBus@Qt_5 5.10.1
 _Zls6QDebugRK10QModbusPdu@Qt_5 5.10.1
 _ZlsR11QDataStreamRK10QModbusPdu@Qt_5 5.10.1
 _ZlsR11QDataStreamRK12QCanBusFrame@Qt_5 5.10.1
 _ZrsR11QDataStreamR12QCanBusFrame@Qt_5 5.10.1
 _ZrsR11QDataStreamR14QModbusRequest@Qt_5 5.10.1
 _ZrsR11QDataStreamR15QModbusResponse@Qt_5 5.10.1
 _ZrsR11QDataStreamRN10QModbusPdu12FunctionCodeE@Qt_5 5.15.5
